; Function Attrs: mustprogress nofree norecurse nosync nounwind willreturn memory(argmem: read) uwtable
define range(i32 -173, 524281) i32 @wolfSSL_GetDhKey_Sz(ptr noundef readonly captures(address_is_null) %0) local_unnamed_addr #9 {
  %2 = icmp eq ptr %0, null
  br i1 %2, label %8, label %3

3:                                                ; preds = %1
  %4 = getelementptr inbounds nuw i8, ptr %0, i64 1058
  %5 = load i16, ptr %4, align 2, !tbaa !156
  %6 = zext i16 %5 to i32
  %7 = shl nuw nsw i32 %6, 3
  br label %8

8:                                                ; preds = %1, %3
  %.0 = phi i32 [ %7, %3 ], [ -173, %1 ]
  ret i32 %.0
}